target datalayout = "e-m:e-p270:32:32-p271:32:32-p272:64:64-i64:64-i128:128-f80:128-n8:16:32:64-S128"
target triple = "x86_64-pc-linux-gnu"

%struct.Ssc_Man_t_ = type { ptr, ptr, ptr, ptr, ptr, ptr, ptr, ptr, i32, i32, ptr, ptr, ptr, ptr, i32, i32, i32, i32, i32, i32, i32, i64, i64, i64, i64, i64, i64, i64, i64, i64 }
%struct.Vec_Int_t_ = type { i32, i32, ptr }
%struct.Gia_Man_t_ = type { ptr, ptr, i32, i32, i32, i32, ptr, ptr, i32, i32, i32, ptr, ptr, %struct.Vec_Int_t_, %struct.Vec_Int_t_, i32, i32, i32, %struct.Vec_Int_t_, ptr, ptr, ptr, i32, i32, i32, i32, ptr, ptr, ptr, ptr, ptr, i32, i32, ptr, i32, ptr, ptr, ptr, ptr, ptr, ptr, ptr, ptr, ptr, ptr, ptr, ptr, ptr, ptr, ptr, ptr, ptr, ptr, %struct.Vec_Int_t_, %struct.Vec_Int_t_, ptr, ptr, ptr, ptr, ptr, ptr, ptr, ptr, ptr, ptr, ptr, ptr, ptr, ptr, ptr, ptr, ptr, ptr, ptr, ptr, ptr, i32, float, float, ptr, ptr, i32, ptr, ptr, ptr, ptr, ptr, ptr, ptr, ptr, ptr, ptr, ptr, ptr, ptr, ptr, ptr, i64, i64, ptr, ptr, i32, i32, i32, i32, i32, i32, i32, i32, i32, i32, i32, i32, ptr, ptr, ptr, ptr, ptr, ptr, ptr, ptr, i32, i32, i32, ptr, i32, i32, ptr, ptr, ptr, ptr, ptr, ptr, i32, i32, ptr, %struct.Vec_Int_t_, %struct.Vec_Int_t_, %struct.Vec_Int_t_, ptr, ptr, ptr, i32, i32, i32, i32, ptr, ptr, ptr, ptr, ptr }
%struct.Gia_Obj_t_ = type <{ i64, i32 }>

; Function Attrs: inlinehint nounwind uwtable
define internal i32 @Gia_ObjNext(ptr noundef %0, i32 noundef %1) #2 {
  %3 = alloca ptr, align 8
  %4 = alloca i32, align 4
  store ptr %0, ptr %3, align 8, !tbaa !29
  store i32 %1, ptr %4, align 4, !tbaa !60
  %5 = load ptr, ptr %3, align 8, !tbaa !29
  %6 = getelementptr inbounds nuw %struct.Gia_Man_t_, ptr %5, i32 0, i32 28
  %7 = load ptr, ptr %6, align 8, !tbaa !104
  %8 = load i32, ptr %4, align 4, !tbaa !60
  %9 = sext i32 %8 to i64
  %10 = getelementptr inbounds i32, ptr %7, i64 %9
  %11 = load i32, ptr %10, align 4, !tbaa !60
  ret i32 %11
}

; Function Attrs: inlinehint nounwind uwtable
define internal ptr @Gia_ManObj(ptr noundef %0, i32 noundef %1) #2 {
  %3 = alloca ptr, align 8
  %4 = alloca i32, align 4
  store ptr %0, ptr %3, align 8, !tbaa !29
  store i32 %1, ptr %4, align 4, !tbaa !60
  %5 = load ptr, ptr %3, align 8, !tbaa !29
  %6 = getelementptr inbounds nuw %struct.Gia_Man_t_, ptr %5, i32 0, i32 6
  %7 = load ptr, ptr %6, align 8, !tbaa !84
  %8 = load i32, ptr %4, align 4, !tbaa !60
  %9 = sext i32 %8 to i64
  %10 = getelementptr inbounds %struct.Gia_Obj_t_, ptr %7, i64 %9
  ret ptr %10
}

; Function Attrs: nounwind uwtable
define i32 @Ssc_GiaResimulateOneClass(ptr noundef %0, i32 noundef %1, i32 noundef %2) #0 {
  %4 = alloca ptr, align 8
  %5 = alloca i32, align 4
  %6 = alloca i32, align 4
  %7 = alloca i32, align 4
  %8 = alloca i32, align 4
  store ptr %0, ptr %4, align 8, !tbaa !15
  store i32 %1, ptr %5, align 4, !tbaa !60
  store i32 %2, ptr %6, align 4, !tbaa !60
  call void @llvm.lifetime.start.p0(i64 4, ptr %7) #13
  call void @llvm.lifetime.start.p0(i64 4, ptr %8) #13
  %9 = load ptr, ptr %4, align 8, !tbaa !15
  %10 = getelementptr inbounds nuw %struct.Ssc_Man_t_, ptr %9, i32 0, i32 1
  %11 = load ptr, ptr %10, align 8, !tbaa !31
  call void @Gia_ManIncrementTravId(ptr noundef %11)
  %12 = load i32, ptr %5, align 4, !tbaa !60
  store i32 %12, ptr %7, align 4, !tbaa !60
  br label %13

13:                                               ; preds = %24, %3
  %14 = load i32, ptr %7, align 4, !tbaa !60
  %15 = icmp sgt i32 %14, 0
  br i1 %15, label %16, label %30

16:                                               ; preds = %13
  %17 = load ptr, ptr %4, align 8, !tbaa !15
  %18 = load ptr, ptr %4, align 8, !tbaa !15
  %19 = getelementptr inbounds nuw %struct.Ssc_Man_t_, ptr %18, i32 0, i32 1
  %20 = load ptr, ptr %19, align 8, !tbaa !31
  %21 = load i32, ptr %7, align 4, !tbaa !60
  %22 = call ptr @Gia_ManObj(ptr noundef %20, i32 noundef %21)
  %23 = call i32 @Ssc_GiaSimulatePattern_rec(ptr noundef %17, ptr noundef %22)
  br label %24

24:                                               ; preds = %16
  %25 = load ptr, ptr %4, align 8, !tbaa !15
  %26 = getelementptr inbounds nuw %struct.Ssc_Man_t_, ptr %25, i32 0, i32 1
  %27 = load ptr, ptr %26, align 8, !tbaa !31
  %28 = load i32, ptr %7, align 4, !tbaa !60
  %29 = call i32 @Gia_ObjNext(ptr noundef %27, i32 noundef %28)
  store i32 %29, ptr %7, align 4, !tbaa !60
  br label %13, !llvm.loop !102

30:                                               ; preds = %13
  %31 = load ptr, ptr %4, align 8, !tbaa !15
  %32 = getelementptr inbounds nuw %struct.Ssc_Man_t_, ptr %31, i32 0, i32 1
  %33 = load ptr, ptr %32, align 8, !tbaa !31
  %34 = load i32, ptr %5, align 4, !tbaa !60
  %35 = call i32 @Ssc_GiaSimClassRefineOneBit(ptr noundef %33, i32 noundef %34)
  store i32 %35, ptr %8, align 4, !tbaa !60
  %36 = load i32, ptr %8, align 4, !tbaa !60
  call void @llvm.lifetime.end.p0(i64 4, ptr %8) #13
  call void @llvm.lifetime.end.p0(i64 4, ptr %7) #13
  ret i32 %36
}