; Function Attrs: nounwind uwtable
define i32 @Ssc_GiaResimulateOneClass(ptr noundef %0, i32 noundef %1, i32 noundef %2) local_unnamed_addr #2 {
  %4 = getelementptr inbounds nuw i8, ptr %0, i64 8
  %5 = load ptr, ptr %4, align 8, !tbaa !24
  tail call void @Gia_ManIncrementTravId(ptr noundef %5) #19
  %6 = icmp sgt i32 %1, 0
  %.pre12 = load ptr, ptr %4, align 8, !tbaa !24
  br i1 %6, label %.lr.ph, label %._crit_edge

.lr.ph:                                           ; preds = %3, %.lr.ph
  %7 = phi ptr [ %12, %.lr.ph ], [ %.pre12, %3 ]
  %.011 = phi i32 [ %15, %.lr.ph ], [ %1, %3 ]
  %8 = getelementptr i8, ptr %7, i64 32
  %.val = load ptr, ptr %8, align 8, !tbaa !80
  %9 = zext nneg i32 %.011 to i64
  %10 = getelementptr inbounds nuw %struct.Gia_Obj_t_, ptr %.val, i64 %9
  %11 = tail call i32 @Ssc_GiaSimulatePattern_rec(ptr noundef nonnull %0, ptr noundef nonnull %10)
  %12 = load ptr, ptr %4, align 8, !tbaa !24
  %13 = getelementptr i8, ptr %12, i64 200
  %.val10 = load ptr, ptr %13, align 8, !tbaa !99
  %14 = getelementptr inbounds nuw i32, ptr %.val10, i64 %9
  %15 = load i32, ptr %14, align 4, !tbaa !44
  %16 = icmp sgt i32 %15, 0
  br i1 %16, label %.lr.ph, label %._crit_edge, !llvm.loop !100

._crit_edge:                                      ; preds = %.lr.ph, %3
  %17 = phi ptr [ %.pre12, %3 ], [ %12, %.lr.ph ]
  %18 = tail call i32 @Ssc_GiaSimClassRefineOneBit(ptr noundef %17, i32 noundef %1) #19
  ret i32 %18
}